; ModuleID = '28/687.c'
source_filename = "28/687.c"
target datalayout = "e-m:e-p270:32:32-p271:32:32-p272:64:64-i64:64-f80:128-n8:16:32:64-S128"
target triple = "x86_64-pc-linux-gnu"

@.str = private unnamed_addr constant [3 x i8] c"%d\00", align 1
@.str.1 = private unnamed_addr constant [4 x i8] c",%d\00", align 1

; Function Attrs: noinline nounwind uwtable
define dso_local i32 @main() #0 {
  %1 = alloca i32, align 4
  %2 = alloca [1000 x i8], align 16
  %3 = alloca [300 x [20 x i8]], align 16
  %4 = alloca [300 x i32], align 16
  %5 = alloca i32, align 4
  %6 = alloca i32, align 4
  %7 = alloca i32, align 4
  %8 = alloca i32, align 4
  %9 = alloca i32, align 4
  %10 = alloca i32, align 4
  store i32 0, i32* %1, align 4
  %11 = getelementptr inbounds [1000 x i8], [1000 x i8]* %2, i64 0, i64 0
  %12 = call i32 (i8*, ...) bitcast (i32 (...)* @gets to i32 (i8*, ...)*)(i8* %11)
  store i32 0, i32* %9, align 4
  store i32 0, i32* %10, align 4
  store i32 0, i32* %5, align 4
  br label %13

13:                                               ; preds = %45, %0
  %14 = load i32, i32* %5, align 4
  %15 = sext i32 %14 to i64
  %16 = getelementptr inbounds [1000 x i8], [1000 x i8]* %2, i64 0, i64 %15
  %17 = load i8, i8* %16, align 1
  %18 = sext i8 %17 to i32
  %19 = icmp ne i32 %18, 0
  br i1 %19, label %20, label %48

20:                                               ; preds = %13
  %21 = load i32, i32* %5, align 4
  %22 = sext i32 %21 to i64
  %23 = getelementptr inbounds [1000 x i8], [1000 x i8]* %2, i64 0, i64 %22
  %24 = load i8, i8* %23, align 1
  %25 = sext i8 %24 to i32
  %26 = icmp eq i32 %25, 32
  br i1 %26, label %27, label %44

27:                                               ; preds = %20
  %28 = load i32, i32* %5, align 4
  %29 = sext i32 %28 to i64
  %30 = getelementptr inbounds [1000 x i8], [1000 x i8]* %2, i64 0, i64 %29
  store i8 0, i8* %30, align 1
  %31 = load i32, i32* %10, align 4
  %32 = sext i32 %31 to i64
  %33 = getelementptr inbounds [300 x [20 x i8]], [300 x [20 x i8]]* %3, i64 0, i64 %32
  %34 = getelementptr inbounds [20 x i8], [20 x i8]* %33, i64 0, i64 0
  %35 = getelementptr inbounds [1000 x i8], [1000 x i8]* %2, i64 0, i64 0
  %36 = load i32, i32* %9, align 4
  %37 = sext i32 %36 to i64
  %38 = getelementptr inbounds i8, i8* %35, i64 %37
  %39 = call i8* @strcpy(i8* %34, i8* %38) #4
  %40 = load i32, i32* %10, align 4
  %41 = add nsw i32 %40, 1
  store i32 %41, i32* %10, align 4
  %42 = load i32, i32* %5, align 4
  %43 = add nsw i32 %42, 1
  store i32 %43, i32* %9, align 4
  br label %44

44:                                               ; preds = %27, %20
  br label %45

45:                                               ; preds = %44
  %46 = load i32, i32* %5, align 4
  %47 = add nsw i32 %46, 1
  store i32 %47, i32* %5, align 4
  br label %13

48:                                               ; preds = %13
  %49 = load i32, i32* %10, align 4
  %50 = sext i32 %49 to i64
  %51 = getelementptr inbounds [300 x [20 x i8]], [300 x [20 x i8]]* %3, i64 0, i64 %50
  %52 = getelementptr inbounds [20 x i8], [20 x i8]* %51, i64 0, i64 0
  %53 = getelementptr inbounds [1000 x i8], [1000 x i8]* %2, i64 0, i64 0
  %54 = load i32, i32* %9, align 4
  %55 = sext i32 %54 to i64
  %56 = getelementptr inbounds i8, i8* %53, i64 %55
  %57 = call i8* @strcpy(i8* %52, i8* %56) #4
  %58 = load i32, i32* %10, align 4
  %59 = add nsw i32 %58, 1
  store i32 %59, i32* %10, align 4
  store i32 0, i32* %6, align 4
  br label %60

60:                                               ; preds = %74, %48
  %61 = load i32, i32* %6, align 4
  %62 = load i32, i32* %10, align 4
  %63 = icmp slt i32 %61, %62
  br i1 %63, label %64, label %77

64:                                               ; preds = %60
  %65 = load i32, i32* %6, align 4
  %66 = sext i32 %65 to i64
  %67 = getelementptr inbounds [300 x [20 x i8]], [300 x [20 x i8]]* %3, i64 0, i64 %66
  %68 = getelementptr inbounds [20 x i8], [20 x i8]* %67, i64 0, i64 0
  %69 = call i64 @strlen(i8* %68) #5
  %70 = trunc i64 %69 to i32
  %71 = load i32, i32* %6, align 4
  %72 = sext i32 %71 to i64
  %73 = getelementptr inbounds [300 x i32], [300 x i32]* %4, i64 0, i64 %72
  store i32 %70, i32* %73, align 4
  br label %74

74:                                               ; preds = %64
  %75 = load i32, i32* %6, align 4
  %76 = add nsw i32 %75, 1
  store i32 %76, i32* %6, align 4
  br label %60

77:                                               ; preds = %60
  %78 = getelementptr inbounds [300 x i32], [300 x i32]* %4, i64 0, i64 0
  %79 = load i32, i32* %78, align 16
  %80 = call i32 (i8*, ...) @printf(i8* getelementptr inbounds ([3 x i8], [3 x i8]* @.str, i64 0, i64 0), i32 %79)
  store i32 1, i32* %6, align 4
  br label %81

81:                                               ; preds = %98, %77
  %82 = load i32, i32* %6, align 4
  %83 = load i32, i32* %10, align 4
  %84 = icmp slt i32 %82, %83
  br i1 %84, label %85, label %101

85:                                               ; preds = %81
  %86 = load i32, i32* %6, align 4
  %87 = sext i32 %86 to i64
  %88 = getelementptr inbounds [300 x i32], [300 x i32]* %4, i64 0, i64 %87
  %89 = load i32, i32* %88, align 4
  %90 = icmp ne i32 %89, 0
  br i1 %90, label %91, label %97

91:                                               ; preds = %85
  %92 = load i32, i32* %6, align 4
  %93 = sext i32 %92 to i64
  %94 = getelementptr inbounds [300 x i32], [300 x i32]* %4, i64 0, i64 %93
  %95 = load i32, i32* %94, align 4
  %96 = call i32 (i8*, ...) @printf(i8* getelementptr inbounds ([4 x i8], [4 x i8]* @.str.1, i64 0, i64 0), i32 %95)
  br label %97

97:                                               ; preds = %91, %85
  br label %98

98:                                               ; preds = %97
  %99 = load i32, i32* %6, align 4
  %100 = add nsw i32 %99, 1
  store i32 %100, i32* %6, align 4
  br label %81

101:                                              ; preds = %81
  ret i32 0
}

declare dso_local i32 @gets(...) #1

; Function Attrs: nounwind
declare dso_local i8* @strcpy(i8*, i8*) #2

; Function Attrs: nounwind readonly
declare dso_local i64 @strlen(i8*) #3

declare dso_local i32 @printf(i8*, ...) #1


!llvm.module.flags = !{!0}
!llvm.ident = !{!1}

!0 = !{i32 1, !"wchar_size", i32 4}
!1 = !{!"clang version 10.0.0-4ubuntu1 "}
