; ModuleID = 'source-C-CXX/27/687.c'
source_filename = "source-C-CXX/27/687.c"
target datalayout = "e-m:e-p270:32:32-p271:32:32-p272:64:64-i64:64-f80:128-n8:16:32:64-S128"
target triple = "x86_64-pc-linux-gnu"

@.str = private unnamed_addr constant [3 x i8] c"%d\00", align 1
@.str.1 = private unnamed_addr constant [4 x i8] c",%d\00", align 1

; Function Attrs: nounwind sspstrong uwtable
define dso_local i32 @main() local_unnamed_addr #0 {
  %1 = alloca [1000 x i8], align 16
  %2 = alloca [300 x [20 x i8]], align 16
  %3 = alloca [300 x i32], align 16
  %4 = getelementptr inbounds [1000 x i8], [1000 x i8]* %1, i64 0, i64 0
  call void @llvm.lifetime.start.p0i8(i64 1000, i8* nonnull %4) #6
  %5 = getelementptr inbounds [300 x [20 x i8]], [300 x [20 x i8]]* %2, i64 0, i64 0, i64 0
  call void @llvm.lifetime.start.p0i8(i64 6000, i8* nonnull %5) #6
  %6 = bitcast [300 x i32]* %3 to i8*
  call void @llvm.lifetime.start.p0i8(i64 1200, i8* nonnull %6) #6
  %7 = call i32 (i8*, ...) bitcast (i32 (...)* @gets to i32 (i8*, ...)*)(i8* nonnull %4) #6
  br label %8

8:                                                ; preds = %18, %0
  %9 = phi i64 [ %25, %18 ], [ 0, %0 ]
  %10 = phi i64 [ %27, %18 ], [ 0, %0 ]
  %11 = phi i32 [ %24, %18 ], [ 0, %0 ]
  br label %12

12:                                               ; preds = %8, %16
  %13 = phi i64 [ %17, %16 ], [ %9, %8 ]
  %14 = getelementptr inbounds [1000 x i8], [1000 x i8]* %1, i64 0, i64 %13
  %15 = load i8, i8* %14, align 1, !tbaa !5
  switch i8 %15, label %16 [
    i8 0, label %28
    i8 32, label %18
  ]

16:                                               ; preds = %12
  %17 = add nuw i64 %13, 1
  br label %12, !llvm.loop !8

18:                                               ; preds = %12
  %19 = getelementptr inbounds [1000 x i8], [1000 x i8]* %1, i64 0, i64 %13
  store i8 0, i8* %19, align 1, !tbaa !5
  %20 = zext i32 %11 to i64
  %21 = getelementptr inbounds [300 x [20 x i8]], [300 x [20 x i8]]* %2, i64 0, i64 %20, i64 0
  %22 = getelementptr inbounds [1000 x i8], [1000 x i8]* %1, i64 0, i64 %10
  %23 = call i8* @strcpy(i8* noundef nonnull %21, i8* noundef nonnull %22) #6
  %24 = add nuw nsw i32 %11, 1
  %25 = add nuw i64 %13, 1
  %26 = shl i64 %25, 32
  %27 = ashr exact i64 %26, 32
  br label %8, !llvm.loop !8

28:                                               ; preds = %12
  %29 = zext i32 %11 to i64
  %30 = getelementptr inbounds [300 x [20 x i8]], [300 x [20 x i8]]* %2, i64 0, i64 %29, i64 0
  %31 = getelementptr inbounds [1000 x i8], [1000 x i8]* %1, i64 0, i64 %10
  %32 = call i8* @strcpy(i8* noundef nonnull %30, i8* noundef nonnull %31) #6
  %33 = add nuw i32 %11, 1
  %34 = zext i32 %33 to i64
  br label %35

35:                                               ; preds = %28, %35
  %36 = phi i64 [ 0, %28 ], [ %41, %35 ]
  %37 = getelementptr inbounds [300 x [20 x i8]], [300 x [20 x i8]]* %2, i64 0, i64 %36, i64 0
  %38 = call i64 @strlen(i8* noundef nonnull %37) #7
  %39 = trunc i64 %38 to i32
  %40 = getelementptr inbounds [300 x i32], [300 x i32]* %3, i64 0, i64 %36
  store i32 %39, i32* %40, align 4, !tbaa !10
  %41 = add nuw nsw i64 %36, 1
  %42 = icmp eq i64 %41, %34
  br i1 %42, label %43, label %35, !llvm.loop !12

43:                                               ; preds = %35
  %44 = getelementptr inbounds [300 x i32], [300 x i32]* %3, i64 0, i64 0
  %45 = load i32, i32* %44, align 16, !tbaa !10
  %46 = call i32 (i8*, ...) @printf(i8* nonnull dereferenceable(1) getelementptr inbounds ([3 x i8], [3 x i8]* @.str, i64 0, i64 0), i32 %45)
  %47 = icmp eq i32 %11, 0
  br i1 %47, label %61, label %48

48:                                               ; preds = %43
  %49 = add nuw i32 %11, 1
  %50 = zext i32 %49 to i64
  br label %51

51:                                               ; preds = %48, %58
  %52 = phi i64 [ 1, %48 ], [ %59, %58 ]
  %53 = getelementptr inbounds [300 x i32], [300 x i32]* %3, i64 0, i64 %52
  %54 = load i32, i32* %53, align 4, !tbaa !10
  %55 = icmp eq i32 %54, 0
  br i1 %55, label %58, label %56

56:                                               ; preds = %51
  %57 = call i32 (i8*, ...) @printf(i8* nonnull dereferenceable(1) getelementptr inbounds ([4 x i8], [4 x i8]* @.str.1, i64 0, i64 0), i32 %54)
  br label %58

58:                                               ; preds = %51, %56
  %59 = add nuw nsw i64 %52, 1
  %60 = icmp eq i64 %59, %50
  br i1 %60, label %61, label %51, !llvm.loop !13

61:                                               ; preds = %58, %43
  call void @llvm.lifetime.end.p0i8(i64 1200, i8* nonnull %6) #6
  call void @llvm.lifetime.end.p0i8(i64 6000, i8* nonnull %5) #6
  call void @llvm.lifetime.end.p0i8(i64 1000, i8* nonnull %4) #6
  ret i32 0
}

; Function Attrs: argmemonly mustprogress nofree nosync nounwind willreturn
declare void @llvm.lifetime.start.p0i8(i64 immarg, i8* nocapture) #1

declare i32 @gets(...) local_unnamed_addr #2

; Function Attrs: argmemonly mustprogress nofree nounwind willreturn
declare i8* @strcpy(i8* noalias returned writeonly, i8* noalias nocapture readonly) local_unnamed_addr #3

; Function Attrs: argmemonly mustprogress nofree nounwind readonly willreturn
declare i64 @strlen(i8* nocapture) local_unnamed_addr #4

; Function Attrs: nofree nounwind
declare noundef i32 @printf(i8* nocapture noundef readonly, ...) local_unnamed_addr #5

; Function Attrs: argmemonly mustprogress nofree nosync nounwind willreturn
declare void @llvm.lifetime.end.p0i8(i64 immarg, i8* nocapture) #1


!llvm.module.flags = !{!0, !1, !2, !3}
!llvm.ident = !{!4}

!0 = !{i32 1, !"wchar_size", i32 4}
!1 = !{i32 7, !"PIC Level", i32 2}
!2 = !{i32 7, !"PIE Level", i32 2}
!3 = !{i32 7, !"uwtable", i32 1}
!4 = !{!"clang version 13.0.0"}
!5 = !{!6, !6, i64 0}
!6 = !{!"omnipotent char", !7, i64 0}
!7 = !{!"Simple C/C++ TBAA"}
!8 = distinct !{!8, !9}
!9 = !{!"llvm.loop.mustprogress"}
!10 = !{!11, !11, i64 0}
!11 = !{!"int", !6, i64 0}
!12 = distinct !{!12, !9}
!13 = distinct !{!13, !9}
